target datalayout = "e-m:e-p270:32:32-p271:32:32-p272:64:64-i64:64-i128:128-f80:128-n8:16:32:64-S128"
target triple = "x86_64-pc-linux-gnu"

%struct.stbir__contributors = type { i32, i32 }
%struct.__mm_store_ss_struct = type { float }
%struct.__mm_loadl_epi64_struct = type { i64 }

; Function Attrs: alwaysinline nounwind uwtable
define available_externally void @_mm_store_ss(ptr noundef %0, <4 x float> noundef %1) #2 {
  %3 = alloca ptr, align 8
  %4 = alloca <4 x float>, align 16
  store ptr %0, ptr %3, align 8, !tbaa !21
  store <4 x float> %1, ptr %4, align 16, !tbaa !12
  %5 = load <4 x float>, ptr %4, align 16, !tbaa !12
  %6 = extractelement <4 x float> %5, i32 0
  %7 = load ptr, ptr %3, align 8, !tbaa !21
  %8 = getelementptr inbounds nuw %struct.__mm_store_ss_struct, ptr %7, i32 0, i32 0
  store float %6, ptr %8, align 1, !tbaa !12
  ret void
}

; Function Attrs: alwaysinline nounwind uwtable
define available_externally <4 x float> @_mm_add_ss(<4 x float> noundef %0, <4 x float> noundef %1) #2 {
  %3 = alloca <4 x float>, align 16
  %4 = alloca <4 x float>, align 16
  store <4 x float> %0, ptr %3, align 16, !tbaa !12
  store <4 x float> %1, ptr %4, align 16, !tbaa !12
  %5 = load <4 x float>, ptr %4, align 16, !tbaa !12
  %6 = extractelement <4 x float> %5, i32 0
  %7 = load <4 x float>, ptr %3, align 16
  %8 = extractelement <4 x float> %7, i32 0
  %9 = fadd float %8, %6
  %10 = load <4 x float>, ptr %3, align 16
  %11 = insertelement <4 x float> %10, float %9, i32 0
  store <4 x float> %11, ptr %3, align 16
  %12 = load <4 x float>, ptr %3, align 16, !tbaa !12
  ret <4 x float> %12
}

; Function Attrs: alwaysinline nounwind uwtable
define available_externally <2 x i64> @_mm_castps_si128(<4 x float> noundef %0) #2 {
  %2 = alloca <4 x float>, align 16
  store <4 x float> %0, ptr %2, align 16, !tbaa !12
  %3 = load <4 x float>, ptr %2, align 16, !tbaa !12
  %4 = bitcast <4 x float> %3 to <2 x i64>
  ret <2 x i64> %4
}

; Function Attrs: alwaysinline nounwind uwtable
define available_externally <4 x float> @_mm_mul_ps(<4 x float> noundef %0, <4 x float> noundef %1) #2 {
  %3 = alloca <4 x float>, align 16
  %4 = alloca <4 x float>, align 16
  store <4 x float> %0, ptr %3, align 16, !tbaa !12
  store <4 x float> %1, ptr %4, align 16, !tbaa !12
  %5 = load <4 x float>, ptr %3, align 16, !tbaa !12
  %6 = load <4 x float>, ptr %4, align 16, !tbaa !12
  %7 = fmul <4 x float> %5, %6
  ret <4 x float> %7
}

; Function Attrs: alwaysinline nounwind uwtable
define available_externally <4 x float> @_mm_castsi128_ps(<2 x i64> noundef %0) #2 {
  %2 = alloca <2 x i64>, align 16
  store <2 x i64> %0, ptr %2, align 16, !tbaa !12
  %3 = load <2 x i64>, ptr %2, align 16, !tbaa !12
  %4 = bitcast <2 x i64> %3 to <4 x float>
  ret <4 x float> %4
}

; Function Attrs: alwaysinline nounwind uwtable
define available_externally <2 x i64> @_mm_loadl_epi64(ptr noundef %0) #2 {
  %2 = alloca ptr, align 8
  %3 = alloca <2 x i64>, align 16
  store ptr %0, ptr %2, align 8, !tbaa !3
  %4 = load ptr, ptr %2, align 8, !tbaa !3
  %5 = getelementptr inbounds nuw %struct.__mm_loadl_epi64_struct, ptr %4, i32 0, i32 0
  %6 = load i64, ptr %5, align 1, !tbaa !12
  %7 = insertelement <2 x i64> poison, i64 %6, i32 0
  %8 = insertelement <2 x i64> %7, i64 0, i32 1
  store <2 x i64> %8, ptr %3, align 16, !tbaa !12
  %9 = load <2 x i64>, ptr %3, align 16, !tbaa !12
  ret <2 x i64> %9
}

; Function Attrs: nounwind uwtable
define void @stbir__horizontal_gather_1_channels_with_2_coeffs(ptr noundef %0, i32 noundef %1, ptr noundef %2, ptr noundef %3, ptr noundef %4, i32 noundef %5) #0 {
  %7 = alloca ptr, align 8
  %8 = alloca i32, align 4
  %9 = alloca ptr, align 8
  %10 = alloca ptr, align 8
  %11 = alloca ptr, align 8
  %12 = alloca i32, align 4
  %13 = alloca ptr, align 8
  %14 = alloca ptr, align 8
  %15 = alloca ptr, align 8
  %16 = alloca ptr, align 8
  %17 = alloca <4 x float>, align 16
  %18 = alloca <4 x float>, align 16
  %19 = alloca <4 x float>, align 16
  store ptr %0, ptr %7, align 8, !tbaa !21
  store i32 %1, ptr %8, align 4, !tbaa !26
  store ptr %2, ptr %9, align 8, !tbaa !21
  store ptr %3, ptr %10, align 8, !tbaa !3
  store ptr %4, ptr %11, align 8, !tbaa !21
  store i32 %5, ptr %12, align 4, !tbaa !26
  call void @llvm.lifetime.start.p0(i64 8, ptr %13) #12
  %20 = load ptr, ptr %7, align 8, !tbaa !21
  %21 = load i32, ptr %8, align 4, !tbaa !26
  %22 = mul i32 %21, 1
  %23 = zext i32 %22 to i64
  %24 = getelementptr inbounds nuw float, ptr %20, i64 %23
  store ptr %24, ptr %13, align 8, !tbaa !21
  call void @llvm.lifetime.start.p0(i64 8, ptr %14) #12
  %25 = load ptr, ptr %7, align 8, !tbaa !21
  store ptr %25, ptr %14, align 8, !tbaa !21
  br label %26

26:                                               ; preds = %64, %6
  call void @llvm.lifetime.start.p0(i64 8, ptr %15) #12
  %27 = load ptr, ptr %9, align 8, !tbaa !21
  %28 = load ptr, ptr %10, align 8, !tbaa !3
  %29 = getelementptr inbounds nuw %struct.stbir__contributors, ptr %28, i32 0, i32 0
  %30 = load i32, ptr %29, align 4, !tbaa !41
  %31 = mul nsw i32 %30, 1
  %32 = sext i32 %31 to i64
  %33 = getelementptr inbounds float, ptr %27, i64 %32
  store ptr %33, ptr %15, align 8, !tbaa !21
  call void @llvm.lifetime.start.p0(i64 8, ptr %16) #12
  %34 = load ptr, ptr %11, align 8, !tbaa !21
  store ptr %34, ptr %16, align 8, !tbaa !21
  call void @llvm.lifetime.start.p0(i64 16, ptr %17) #12
  call void @llvm.lifetime.start.p0(i64 16, ptr %18) #12
  call void @llvm.lifetime.start.p0(i64 16, ptr %19) #12
  %35 = load ptr, ptr %15, align 8, !tbaa !21
  call void asm sideeffect "", "r,~{dirflag},~{fpsr},~{flags}"(ptr %35) #12, !srcloc !541
  %36 = load ptr, ptr %16, align 8, !tbaa !21
  %37 = call <2 x i64> @_mm_loadl_epi64(ptr noundef %36)
  %38 = call <4 x float> @_mm_castsi128_ps(<2 x i64> noundef %37)
  store <4 x float> %38, ptr %18, align 16, !tbaa !12
  %39 = load ptr, ptr %15, align 8, !tbaa !21
  %40 = call <2 x i64> @_mm_loadl_epi64(ptr noundef %39)
  %41 = call <4 x float> @_mm_castsi128_ps(<2 x i64> noundef %40)
  store <4 x float> %41, ptr %19, align 16, !tbaa !12
  %42 = load <4 x float>, ptr %18, align 16, !tbaa !12
  %43 = load <4 x float>, ptr %19, align 16, !tbaa !12
  %44 = call <4 x float> @_mm_mul_ps(<4 x float> noundef %42, <4 x float> noundef %43)
  store <4 x float> %44, ptr %17, align 16, !tbaa !12
  %45 = load <4 x float>, ptr %17, align 16, !tbaa !12
  %46 = call <2 x i64> @_mm_castps_si128(<4 x float> noundef %45)
  %47 = bitcast <2 x i64> %46 to <4 x i32>
  %48 = shufflevector <4 x i32> %47, <4 x i32> poison, <4 x i32> <i32 1, i32 2, i32 3, i32 0>
  %49 = bitcast <4 x i32> %48 to <2 x i64>
  %50 = call <4 x float> @_mm_castsi128_ps(<2 x i64> noundef %49)
  store <4 x float> %50, ptr %18, align 16, !tbaa !12
  %51 = load <4 x float>, ptr %17, align 16, !tbaa !12
  %52 = load <4 x float>, ptr %18, align 16, !tbaa !12
  %53 = call <4 x float> @_mm_add_ss(<4 x float> noundef %51, <4 x float> noundef %52)
  store <4 x float> %53, ptr %17, align 16, !tbaa !12
  %54 = load ptr, ptr %14, align 8, !tbaa !21
  %55 = load <4 x float>, ptr %17, align 16, !tbaa !12
  call void @_mm_store_ss(ptr noundef %54, <4 x float> noundef %55)
  %56 = load i32, ptr %12, align 4, !tbaa !26
  %57 = load ptr, ptr %11, align 8, !tbaa !21
  %58 = sext i32 %56 to i64
  %59 = getelementptr inbounds float, ptr %57, i64 %58
  store ptr %59, ptr %11, align 8, !tbaa !21
  %60 = load ptr, ptr %10, align 8, !tbaa !3
  %61 = getelementptr inbounds nuw %struct.stbir__contributors, ptr %60, i32 1
  store ptr %61, ptr %10, align 8, !tbaa !3
  %62 = load ptr, ptr %14, align 8, !tbaa !21
  %63 = getelementptr inbounds float, ptr %62, i64 1
  store ptr %63, ptr %14, align 8, !tbaa !21
  call void @llvm.lifetime.end.p0(i64 16, ptr %19) #12
  call void @llvm.lifetime.end.p0(i64 16, ptr %18) #12
  call void @llvm.lifetime.end.p0(i64 16, ptr %17) #12
  call void @llvm.lifetime.end.p0(i64 8, ptr %16) #12
  call void @llvm.lifetime.end.p0(i64 8, ptr %15) #12
  br label %64

64:                                               ; preds = %26
  %65 = load ptr, ptr %14, align 8, !tbaa !21
  %66 = load ptr, ptr %13, align 8, !tbaa !21
  %67 = icmp ult ptr %65, %66
  br i1 %67, label %26, label %68, !llvm.loop !542

68:                                               ; preds = %64
  call void @llvm.lifetime.end.p0(i64 8, ptr %14) #12
  call void @llvm.lifetime.end.p0(i64 8, ptr %13) #12
  ret void
}