; Function Attrs: nounwind uwtable
define void @stbir__horizontal_gather_1_channels_with_2_coeffs(ptr noundef writeonly captures(address) %0, i32 noundef %1, ptr noundef %2, ptr noundef readonly captures(none) %3, ptr noundef readonly captures(none) %4, i32 noundef %5) #0 {
  %7 = zext i32 %1 to i64
  %8 = getelementptr inbounds nuw float, ptr %0, i64 %7
  %9 = sext i32 %5 to i64
  br label %10

10:                                               ; preds = %10, %6
  %.022 = phi ptr [ %0, %6 ], [ %25, %10 ]
  %.021 = phi ptr [ %4, %6 ], [ %23, %10 ]
  %.0 = phi ptr [ %3, %6 ], [ %24, %10 ]
  %11 = load i32, ptr %.0, align 4, !tbaa !34
  %12 = sext i32 %11 to i64
  %13 = getelementptr inbounds float, ptr %2, i64 %12
  tail call void asm sideeffect "", "r,~{dirflag},~{fpsr},~{flags}"(ptr %13) #24, !srcloc !465
  %14 = load i64, ptr %.021, align 1, !tbaa !4
  %15 = insertelement <2 x i64> poison, i64 %14, i64 0
  %16 = bitcast <2 x i64> %15 to <4 x float>
  %17 = load i64, ptr %13, align 1, !tbaa !4
  %18 = insertelement <2 x i64> poison, i64 %17, i64 0
  %19 = bitcast <2 x i64> %18 to <4 x float>
  %20 = fmul <4 x float> %16, %19
  %shift = shufflevector <4 x float> %20, <4 x float> poison, <4 x i32> <i32 1, i32 poison, i32 poison, i32 poison>
  %21 = fadd <4 x float> %20, %shift
  %22 = extractelement <4 x float> %21, i64 0
  store float %22, ptr %.022, align 1, !tbaa !4
  %23 = getelementptr inbounds float, ptr %.021, i64 %9
  %24 = getelementptr inbounds nuw i8, ptr %.0, i64 8
  %25 = getelementptr inbounds nuw i8, ptr %.022, i64 4
  %26 = icmp ult ptr %25, %8
  br i1 %26, label %10, label %27, !llvm.loop !466

27:                                               ; preds = %10
  ret void
}